; Function Attrs: mustprogress uwtable
define void @_ZN2cv3hal21cvtBGRtoThreePlaneYUVEPKhmPhmiiibi(ptr noundef %0, i64 noundef %1, ptr noundef %2, i64 noundef %3, i32 noundef %4, i32 noundef %5, i32 noundef %6, i1 noundef zeroext %7, i32 noundef %8) local_unnamed_addr #0 personality ptr @__gxx_personality_v0 {
  %10 = alloca %"class.cv::utils::trace::details::Region", align 8
  call void @_ZN2cv5utils5trace7details6RegionC1ERKNS3_21LocationStaticStorageE(ptr noundef nonnull align 8 dereferenceable(12) %10, ptr noundef nonnull align 8 dereferenceable(32) @_ZZN2cv3hal21cvtBGRtoThreePlaneYUVEPKhmPhmiiibiE25__cv_trace_location_fn189)
  invoke void @_ZN2cv3hal12cpu_baseline21cvtBGRtoThreePlaneYUVEPKhmPhmiiibi(ptr noundef %0, i64 noundef %1, ptr noundef %2, i64 noundef %3, i32 noundef %4, i32 noundef %5, i32 noundef %6, i1 noundef zeroext %7, i32 noundef %8)
          to label %11 unwind label %18

11:                                               ; preds = %9
  %12 = getelementptr inbounds i8, ptr %10, i64 8
  %13 = load i32, ptr %12, align 8
  %.not.i = icmp eq i32 %13, 0
  br i1 %.not.i, label %_ZN2cv5utils5trace7details6RegionD2Ev.exit, label %14

14:                                               ; preds = %11
  invoke void @_ZN2cv5utils5trace7details6Region7destroyEv(ptr noundef nonnull align 8 dereferenceable(12) %10)
          to label %_ZN2cv5utils5trace7details6RegionD2Ev.exit unwind label %15

15:                                               ; preds = %14
  %16 = landingpad { ptr, i32 }
          catch ptr null
  %17 = extractvalue { ptr, i32 } %16, 0
  call void @__clang_call_terminate(ptr %17) #13
  unreachable

_ZN2cv5utils5trace7details6RegionD2Ev.exit:       ; preds = %11, %14
  ret void

18:                                               ; preds = %9
  %19 = landingpad { ptr, i32 }
          cleanup
  call void @_ZN2cv5utils5trace7details6RegionD2Ev(ptr noundef nonnull align 8 dereferenceable(12) %10) #12
  resume { ptr, i32 } %19
}